; Function Attrs: mustprogress uwtable
define hidden void @_ZN3sls10smt_solverC2ER11ast_managerRK10params_ref(ptr noundef nonnull align 8 dereferenceable(488) initializes((0, 8)) %0, ptr noundef nonnull align 8 dereferenceable(976) %1, ptr noundef nonnull align 8 dereferenceable(8) %2) unnamed_addr #3 align 2 personality ptr @__gxx_personality_v0 {
  store ptr %1, ptr %0, align 8, !tbaa !3
  %4 = getelementptr inbounds nuw i8, ptr %0, i64 8
  tail call void @_ZN3sat4ddfwC2Ev(ptr noundef nonnull align 8 dereferenceable(434) %4)
  %5 = getelementptr inbounds nuw i8, ptr %0, i64 448
  %6 = invoke noalias noundef ptr @_ZN6memory8allocateEm(i64 noundef 408)
          to label %7 unwind label %16

7:                                                ; preds = %3
  invoke void @_ZN3sls10smt_solver10solver_ctxC2ER11ast_managerRN3sat4ddfwE(ptr noundef nonnull align 8 dereferenceable(401) %6, ptr noundef nonnull align 8 dereferenceable(976) %1, ptr noundef nonnull align 8 dereferenceable(434) %4)
          to label %8 unwind label %16

8:                                                ; preds = %7
  store ptr %6, ptr %5, align 8, !tbaa !8
  %9 = getelementptr inbounds nuw i8, ptr %0, i64 456
  %10 = ptrtoint ptr %1 to i64
  store i64 %10, ptr %9, align 8, !tbaa !3
  %11 = getelementptr inbounds nuw i8, ptr %0, i64 464
  %12 = getelementptr inbounds nuw i8, ptr %0, i64 472
  %13 = getelementptr inbounds nuw i8, ptr %6, i64 24
  tail call void @llvm.memset.p0.i64(ptr noundef nonnull align 8 dereferenceable(24) %11, i8 0, i64 24, i1 false)
  %14 = load ptr, ptr %13, align 8, !tbaa !77
  invoke void @_ZN3sat4ddfw11updt_paramsERK10params_ref(ptr noundef nonnull align 8 dereferenceable(434) %14, ptr noundef nonnull align 8 dereferenceable(8) %2)
          to label %.noexc unwind label %18

.noexc:                                           ; preds = %8
  %15 = getelementptr inbounds nuw i8, ptr %6, i64 32
  invoke void @_ZN3sls7context11updt_paramsERK10params_ref(ptr noundef nonnull align 8 dereferenceable(321) %15, ptr noundef nonnull align 8 dereferenceable(8) %2)
          to label %_ZN3sls10smt_solver10solver_ctx11updt_paramsERK10params_ref.exit unwind label %18

_ZN3sls10smt_solver10solver_ctx11updt_paramsERK10params_ref.exit: ; preds = %.noexc
  ret void

16:                                               ; preds = %7, %3
  %17 = landingpad { ptr, i32 }
          cleanup
  br label %20

18:                                               ; preds = %.noexc, %8
  %19 = landingpad { ptr, i32 }
          cleanup
  tail call void @_ZN10statisticsD2Ev(ptr noundef nonnull align 8 dereferenceable(16) %12) #21
  tail call void @_ZN15ref_vector_coreI4expr19ref_manager_wrapperIS0_11ast_managerEED2Ev(ptr noundef nonnull align 8 dereferenceable(16) %9) #21
  br label %20

20:                                               ; preds = %18, %16
  %.pn = phi { ptr, i32 } [ %19, %18 ], [ %17, %16 ]
  tail call void @_ZN3sat4ddfwD1Ev(ptr noundef nonnull align 8 dereferenceable(434) %4) #21
  resume { ptr, i32 } %.pn
}